target datalayout = "e-m:e-p270:32:32-p271:32:32-p272:64:64-i64:64-i128:128-f80:128-n8:16:32:64-S128"
target triple = "x86_64-pc-linux-gnu"

%struct._lv_draw_buf_t = type { %struct.lv_image_header_t, i32, ptr, ptr, ptr }
%struct.lv_image_header_t = type <{ i64, i32 }>

; Function Attrs: nounwind uwtable
define ptr @lv_draw_buf_goto_xy(ptr noundef %0, i32 noundef %1, i32 noundef %2) #0 {
  %4 = alloca ptr, align 8
  %5 = alloca ptr, align 8
  %6 = alloca i32, align 4
  %7 = alloca i32, align 4
  %8 = alloca ptr, align 8
  %9 = alloca i32, align 4
  store ptr %0, ptr %5, align 8, !tbaa !22
  store i32 %1, ptr %6, align 4, !tbaa !18
  store i32 %2, ptr %7, align 4, !tbaa !18
  br label %10

10:                                               ; preds = %3
  %11 = load ptr, ptr %5, align 8, !tbaa !22
  %12 = icmp ne ptr %11, null
  br i1 %12, label %17, label %13

13:                                               ; preds = %10
  br label %14

14:                                               ; preds = %13
  br label %15

15:                                               ; preds = %14
  br label %16

16:                                               ; preds = %15, %16
  br label %16

17:                                               ; preds = %10
  br label %18

18:                                               ; preds = %17
  %19 = load ptr, ptr %5, align 8, !tbaa !22
  %20 = icmp eq ptr %19, null
  br i1 %20, label %21, label %22

21:                                               ; preds = %18
  store ptr null, ptr %4, align 8
  br label %101

22:                                               ; preds = %18
  call void @llvm.lifetime.start.p0(i64 8, ptr %8) #5
  %23 = load ptr, ptr %5, align 8, !tbaa !22
  %24 = getelementptr inbounds nuw %struct._lv_draw_buf_t, ptr %23, i32 0, i32 2
  %25 = load ptr, ptr %24, align 8, !tbaa !35
  store ptr %25, ptr %8, align 8, !tbaa !20
  %26 = load ptr, ptr %5, align 8, !tbaa !22
  %27 = getelementptr inbounds nuw %struct._lv_draw_buf_t, ptr %26, i32 0, i32 0
  %28 = load i64, ptr %27, align 8
  %29 = lshr i64 %28, 8
  %30 = and i64 %29, 255
  %31 = trunc i64 %30 to i32
  %32 = icmp eq i32 %31, 7
  br i1 %32, label %33, label %34

33:                                               ; preds = %22
  br label %65

34:                                               ; preds = %22
  %35 = load ptr, ptr %5, align 8, !tbaa !22
  %36 = getelementptr inbounds nuw %struct._lv_draw_buf_t, ptr %35, i32 0, i32 0
  %37 = load i64, ptr %36, align 8
  %38 = lshr i64 %37, 8
  %39 = and i64 %38, 255
  %40 = trunc i64 %39 to i32
  %41 = icmp eq i32 %40, 8
  br i1 %41, label %42, label %43

42:                                               ; preds = %34
  br label %63

43:                                               ; preds = %34
  %44 = load ptr, ptr %5, align 8, !tbaa !22
  %45 = getelementptr inbounds nuw %struct._lv_draw_buf_t, ptr %44, i32 0, i32 0
  %46 = load i64, ptr %45, align 8
  %47 = lshr i64 %46, 8
  %48 = and i64 %47, 255
  %49 = trunc i64 %48 to i32
  %50 = icmp eq i32 %49, 9
  br i1 %50, label %51, label %52

51:                                               ; preds = %43
  br label %61

52:                                               ; preds = %43
  %53 = load ptr, ptr %5, align 8, !tbaa !22
  %54 = getelementptr inbounds nuw %struct._lv_draw_buf_t, ptr %53, i32 0, i32 0
  %55 = load i64, ptr %54, align 8
  %56 = lshr i64 %55, 8
  %57 = and i64 %56, 255
  %58 = trunc i64 %57 to i32
  %59 = icmp eq i32 %58, 10
  %60 = select i1 %59, i32 256, i32 0
  br label %61

61:                                               ; preds = %52, %51
  %62 = phi i32 [ 16, %51 ], [ %60, %52 ]
  br label %63

63:                                               ; preds = %61, %42
  %64 = phi i32 [ 4, %42 ], [ %62, %61 ]
  br label %65

65:                                               ; preds = %63, %33
  %66 = phi i32 [ 2, %33 ], [ %64, %63 ]
  %67 = sext i32 %66 to i64
  %68 = mul i64 %67, 4
  %69 = load ptr, ptr %8, align 8, !tbaa !20
  %70 = getelementptr inbounds nuw i8, ptr %69, i64 %68
  store ptr %70, ptr %8, align 8, !tbaa !20
  %71 = load ptr, ptr %5, align 8, !tbaa !22
  %72 = getelementptr inbounds nuw %struct._lv_draw_buf_t, ptr %71, i32 0, i32 0
  %73 = getelementptr inbounds nuw %struct.lv_image_header_t, ptr %72, i32 0, i32 1
  %74 = load i32, ptr %73, align 8
  %75 = and i32 %74, 65535
  %76 = load i32, ptr %7, align 4, !tbaa !18
  %77 = mul i32 %75, %76
  %78 = load ptr, ptr %8, align 8, !tbaa !20
  %79 = zext i32 %77 to i64
  %80 = getelementptr inbounds nuw i8, ptr %78, i64 %79
  store ptr %80, ptr %8, align 8, !tbaa !20
  %81 = load i32, ptr %6, align 4, !tbaa !18
  %82 = icmp eq i32 %81, 0
  br i1 %82, label %83, label %85

83:                                               ; preds = %65
  %84 = load ptr, ptr %8, align 8, !tbaa !20
  store ptr %84, ptr %4, align 8
  store i32 1, ptr %9, align 4
  br label %100

85:                                               ; preds = %65
  %86 = load ptr, ptr %8, align 8, !tbaa !20
  %87 = load i32, ptr %6, align 4, !tbaa !18
  %88 = load ptr, ptr %5, align 8, !tbaa !22
  %89 = getelementptr inbounds nuw %struct._lv_draw_buf_t, ptr %88, i32 0, i32 0
  %90 = load i64, ptr %89, align 8
  %91 = lshr i64 %90, 8
  %92 = and i64 %91, 255
  %93 = trunc i64 %92 to i32
  %94 = call zeroext i8 @lv_color_format_get_bpp(i32 noundef %93)
  %95 = zext i8 %94 to i32
  %96 = mul i32 %87, %95
  %97 = udiv i32 %96, 8
  %98 = zext i32 %97 to i64
  %99 = getelementptr inbounds nuw i8, ptr %86, i64 %98
  store ptr %99, ptr %4, align 8
  store i32 1, ptr %9, align 4
  br label %100

100:                                              ; preds = %85, %83
  call void @llvm.lifetime.end.p0(i64 8, ptr %8) #5
  br label %101

101:                                              ; preds = %100, %21
  %102 = load ptr, ptr %4, align 8
  ret ptr %102
}