; Function Attrs: nounwind uwtable
define ptr @lv_draw_buf_goto_xy(ptr noundef readonly captures(address_is_null) %0, i32 noundef %1, i32 noundef %2) local_unnamed_addr #0 {
  %.not = icmp eq ptr %0, null
  br i1 %.not, label %.preheader, label %4

.preheader:                                       ; preds = %3, %.preheader
  br label %.preheader

4:                                                ; preds = %3
  %5 = getelementptr inbounds nuw i8, ptr %0, i64 16
  %6 = load ptr, ptr %5, align 8, !tbaa !19
  %7 = load i64, ptr %0, align 8
  %8 = trunc i64 %7 to i32
  %9 = lshr i32 %8, 8
  %10 = and i32 %9, 255
  %trunc = trunc i32 %9 to i8
  %switch.tableidx = add i8 %trunc, -7
  %11 = icmp ult i8 %switch.tableidx, 3
  br i1 %11, label %switch.lookup, label %12

12:                                               ; preds = %4
  %13 = icmp eq i32 %10, 10
  %14 = select i1 %13, i64 1024, i64 0
  br label %16

switch.lookup:                                    ; preds = %4
  %15 = zext nneg i8 %switch.tableidx to i64
  %switch.gep = getelementptr inbounds nuw [3 x i64], ptr @switch.table.lv_draw_buf_adjust_stride, i64 0, i64 %15
  %switch.load = load i64, ptr %switch.gep, align 8
  br label %16

16:                                               ; preds = %switch.lookup, %12
  %17 = phi i64 [ %14, %12 ], [ %switch.load, %switch.lookup ]
  %18 = getelementptr inbounds nuw i8, ptr %6, i64 %17
  %19 = getelementptr inbounds nuw i8, ptr %0, i64 8
  %20 = load i32, ptr %19, align 8
  %21 = and i32 %20, 65535
  %22 = mul i32 %21, %2
  %23 = zext i32 %22 to i64
  %24 = getelementptr inbounds nuw i8, ptr %18, i64 %23
  %25 = icmp eq i32 %1, 0
  br i1 %25, label %33, label %26

26:                                               ; preds = %16
  %27 = tail call zeroext i8 @lv_color_format_get_bpp(i32 noundef %10) #9
  %28 = zext i8 %27 to i32
  %29 = mul i32 %1, %28
  %30 = lshr i32 %29, 3
  %31 = zext nneg i32 %30 to i64
  %32 = getelementptr inbounds nuw i8, ptr %24, i64 %31
  br label %33

33:                                               ; preds = %26, %16
  %.1 = phi ptr [ %32, %26 ], [ %24, %16 ]
  ret ptr %.1
}